target datalayout = "e-m:e-p270:32:32-p271:32:32-p272:64:64-i64:64-i128:128-f80:128-n8:16:32:64-S128"
target triple = "x86_64-pc-linux-gnu"

%struct.TupleDescData = type { i32, i32, i32, i32, ptr, [0 x %struct.CompactAttribute] }
%struct.CompactAttribute = type { i32, i16, i8, i8, i8, i8, i8, i8, i8 }
%struct.ExpandedRecordHeader = type { %struct.ExpandedObjectHeader, i32, i32, i32, i32, i32, ptr, i64, ptr, ptr, i32, i64, i64, i32, i8, ptr, ptr, ptr, ptr, ptr, ptr, %struct.MemoryContextCallback }
%struct.ExpandedObjectHeader = type { i32, ptr, ptr, [10 x i8], [10 x i8] }
%struct.MemoryContextCallback = type { ptr, ptr, ptr }

; Function Attrs: inlinehint nounwind uwtable
define internal ptr @expanded_record_get_tupdesc(ptr noundef %0) #5 {
  %2 = alloca ptr, align 8
  %3 = alloca ptr, align 8
  store ptr %0, ptr %3, align 8
  %4 = load ptr, ptr %3, align 8
  %5 = getelementptr inbounds nuw %struct.ExpandedRecordHeader, ptr %4, i32 0, i32 6
  %6 = load ptr, ptr %5, align 8
  %7 = icmp ne ptr %6, null
  %8 = zext i1 %7 to i32
  %9 = icmp ne i32 %8, 0
  %10 = zext i1 %9 to i32
  %11 = sext i32 %10 to i64
  %12 = call i64 @llvm.expect.i64(i64 %11, i64 1)
  %13 = icmp ne i64 %12, 0
  br i1 %13, label %14, label %18

14:                                               ; preds = %1
  %15 = load ptr, ptr %3, align 8
  %16 = getelementptr inbounds nuw %struct.ExpandedRecordHeader, ptr %15, i32 0, i32 6
  %17 = load ptr, ptr %16, align 8
  store ptr %17, ptr %2, align 8
  br label %21

18:                                               ; preds = %1
  %19 = load ptr, ptr %3, align 8
  %20 = call ptr @expanded_record_fetch_tupdesc(ptr noundef %19)
  store ptr %20, ptr %2, align 8
  br label %21

21:                                               ; preds = %18, %14
  %22 = load ptr, ptr %2, align 8
  ret ptr %22
}

; Function Attrs: nounwind uwtable
define dso_local void @deconstruct_expanded_record(ptr noundef %0) #0 {
  %2 = alloca ptr, align 8
  %3 = alloca ptr, align 8
  %4 = alloca ptr, align 8
  %5 = alloca ptr, align 8
  %6 = alloca i32, align 4
  %7 = alloca i32, align 4
  %8 = alloca ptr, align 8
  store ptr %0, ptr %2, align 8
  call void @llvm.lifetime.start.p0(i64 8, ptr %3) #9
  call void @llvm.lifetime.start.p0(i64 8, ptr %4) #9
  call void @llvm.lifetime.start.p0(i64 8, ptr %5) #9
  call void @llvm.lifetime.start.p0(i64 4, ptr %6) #9
  %9 = load ptr, ptr %2, align 8
  %10 = getelementptr inbounds nuw %struct.ExpandedRecordHeader, ptr %9, i32 0, i32 2
  %11 = load i32, ptr %10, align 4
  %12 = and i32 %11, 4
  %13 = icmp ne i32 %12, 0
  br i1 %13, label %14, label %15

14:                                               ; preds = %1
  store i32 1, ptr %7, align 4
  br label %89

15:                                               ; preds = %1
  %16 = load ptr, ptr %2, align 8
  %17 = call ptr @expanded_record_get_tupdesc(ptr noundef %16)
  store ptr %17, ptr %3, align 8
  %18 = load ptr, ptr %3, align 8
  %19 = getelementptr inbounds nuw %struct.TupleDescData, ptr %18, i32 0, i32 0
  %20 = load i32, ptr %19, align 8
  store i32 %20, ptr %6, align 4
  %21 = load ptr, ptr %2, align 8
  %22 = getelementptr inbounds nuw %struct.ExpandedRecordHeader, ptr %21, i32 0, i32 8
  %23 = load ptr, ptr %22, align 8
  %24 = icmp eq ptr %23, null
  br i1 %24, label %31, label %25

25:                                               ; preds = %15
  %26 = load ptr, ptr %2, align 8
  %27 = getelementptr inbounds nuw %struct.ExpandedRecordHeader, ptr %26, i32 0, i32 10
  %28 = load i32, ptr %27, align 8
  %29 = load i32, ptr %6, align 4
  %30 = icmp ne i32 %28, %29
  br i1 %30, label %31, label %55

31:                                               ; preds = %25, %15
  call void @llvm.lifetime.start.p0(i64 8, ptr %8) #9
  %32 = load ptr, ptr %2, align 8
  %33 = getelementptr inbounds nuw %struct.ExpandedRecordHeader, ptr %32, i32 0, i32 0
  %34 = getelementptr inbounds nuw %struct.ExpandedObjectHeader, ptr %33, i32 0, i32 2
  %35 = load ptr, ptr %34, align 8
  %36 = load i32, ptr %6, align 4
  %37 = sext i32 %36 to i64
  %38 = mul i64 %37, 9
  %39 = call ptr @MemoryContextAlloc(ptr noundef %35, i64 noundef %38)
  store ptr %39, ptr %8, align 8
  %40 = load ptr, ptr %8, align 8
  store ptr %40, ptr %4, align 8
  %41 = load ptr, ptr %8, align 8
  %42 = load i32, ptr %6, align 4
  %43 = sext i32 %42 to i64
  %44 = mul i64 %43, 8
  %45 = getelementptr inbounds nuw i8, ptr %41, i64 %44
  store ptr %45, ptr %5, align 8
  %46 = load ptr, ptr %4, align 8
  %47 = load ptr, ptr %2, align 8
  %48 = getelementptr inbounds nuw %struct.ExpandedRecordHeader, ptr %47, i32 0, i32 8
  store ptr %46, ptr %48, align 8
  %49 = load ptr, ptr %5, align 8
  %50 = load ptr, ptr %2, align 8
  %51 = getelementptr inbounds nuw %struct.ExpandedRecordHeader, ptr %50, i32 0, i32 9
  store ptr %49, ptr %51, align 8
  %52 = load i32, ptr %6, align 4
  %53 = load ptr, ptr %2, align 8
  %54 = getelementptr inbounds nuw %struct.ExpandedRecordHeader, ptr %53, i32 0, i32 10
  store i32 %52, ptr %54, align 8
  call void @llvm.lifetime.end.p0(i64 8, ptr %8) #9
  br label %62

55:                                               ; preds = %25
  %56 = load ptr, ptr %2, align 8
  %57 = getelementptr inbounds nuw %struct.ExpandedRecordHeader, ptr %56, i32 0, i32 8
  %58 = load ptr, ptr %57, align 8
  store ptr %58, ptr %4, align 8
  %59 = load ptr, ptr %2, align 8
  %60 = getelementptr inbounds nuw %struct.ExpandedRecordHeader, ptr %59, i32 0, i32 9
  %61 = load ptr, ptr %60, align 8
  store ptr %61, ptr %5, align 8
  br label %62

62:                                               ; preds = %55, %31
  %63 = load ptr, ptr %2, align 8
  %64 = getelementptr inbounds nuw %struct.ExpandedRecordHeader, ptr %63, i32 0, i32 2
  %65 = load i32, ptr %64, align 4
  %66 = and i32 %65, 1
  %67 = icmp ne i32 %66, 0
  br i1 %67, label %68, label %75

68:                                               ; preds = %62
  %69 = load ptr, ptr %2, align 8
  %70 = getelementptr inbounds nuw %struct.ExpandedRecordHeader, ptr %69, i32 0, i32 15
  %71 = load ptr, ptr %70, align 8
  %72 = load ptr, ptr %3, align 8
  %73 = load ptr, ptr %4, align 8
  %74 = load ptr, ptr %5, align 8
  call void @heap_deform_tuple(ptr noundef %71, ptr noundef %72, ptr noundef %73, ptr noundef %74)
  br label %84

75:                                               ; preds = %62
  %76 = load ptr, ptr %4, align 8
  %77 = load i32, ptr %6, align 4
  %78 = sext i32 %77 to i64
  %79 = mul i64 %78, 8
  call void @llvm.memset.p0.i64(ptr align 8 %76, i8 0, i64 %79, i1 false)
  %80 = load ptr, ptr %5, align 8
  %81 = load i32, ptr %6, align 4
  %82 = sext i32 %81 to i64
  %83 = mul i64 %82, 1
  call void @llvm.memset.p0.i64(ptr align 1 %80, i8 1, i64 %83, i1 false)
  br label %84

84:                                               ; preds = %75, %68
  %85 = load ptr, ptr %2, align 8
  %86 = getelementptr inbounds nuw %struct.ExpandedRecordHeader, ptr %85, i32 0, i32 2
  %87 = load i32, ptr %86, align 4
  %88 = or i32 %87, 4
  store i32 %88, ptr %86, align 4
  store i32 0, ptr %7, align 4
  br label %89

89:                                               ; preds = %84, %14
  call void @llvm.lifetime.end.p0(i64 4, ptr %6) #9
  call void @llvm.lifetime.end.p0(i64 8, ptr %5) #9
  call void @llvm.lifetime.end.p0(i64 8, ptr %4) #9
  call void @llvm.lifetime.end.p0(i64 8, ptr %3) #9
  %90 = load i32, ptr %7, align 4
  switch i32 %90, label %92 [
    i32 0, label %91
    i32 1, label %91
  ]

91:                                               ; preds = %89, %89
  ret void

92:                                               ; preds = %89
  unreachable
}