; Function Attrs: nounwind uwtable
define dso_local void @deconstruct_expanded_record(ptr noundef %0) local_unnamed_addr #0 {
  %2 = getelementptr inbounds nuw i8, ptr %0, i64 52
  %3 = load i32, ptr %2, align 4
  %4 = and i32 %3, 4
  %.not = icmp eq i32 %4, 0
  br i1 %.not, label %5, label %42

5:                                                ; preds = %1
  %6 = getelementptr inbounds nuw i8, ptr %0, i64 72
  %7 = load ptr, ptr %6, align 8
  %.not.i = icmp eq ptr %7, null
  br i1 %.not.i, label %8, label %expanded_record_get_tupdesc.exit, !prof !4

8:                                                ; preds = %5
  %9 = tail call ptr @expanded_record_fetch_tupdesc(ptr noundef nonnull %0)
  br label %expanded_record_get_tupdesc.exit

expanded_record_get_tupdesc.exit:                 ; preds = %5, %8
  %.0.i = phi ptr [ %9, %8 ], [ %7, %5 ]
  %10 = load i32, ptr %.0.i, align 8
  %11 = getelementptr inbounds nuw i8, ptr %0, i64 88
  %12 = load ptr, ptr %11, align 8
  %13 = icmp eq ptr %12, null
  br i1 %13, label %17, label %14

14:                                               ; preds = %expanded_record_get_tupdesc.exit
  %15 = getelementptr inbounds nuw i8, ptr %0, i64 104
  %16 = load i32, ptr %15, align 8
  %.not30 = icmp eq i32 %16, %10
  br i1 %.not30, label %27, label %17

17:                                               ; preds = %14, %expanded_record_get_tupdesc.exit
  %18 = getelementptr inbounds nuw i8, ptr %0, i64 16
  %19 = load ptr, ptr %18, align 8
  %20 = sext i32 %10 to i64
  %21 = mul nsw i64 %20, 9
  %22 = tail call ptr @MemoryContextAlloc(ptr noundef %19, i64 noundef %21) #8
  %23 = shl nsw i64 %20, 3
  %24 = getelementptr inbounds nuw i8, ptr %22, i64 %23
  store ptr %22, ptr %11, align 8
  %25 = getelementptr inbounds nuw i8, ptr %0, i64 96
  store ptr %24, ptr %25, align 8
  %26 = getelementptr inbounds nuw i8, ptr %0, i64 104
  store i32 %10, ptr %26, align 8
  br label %30

27:                                               ; preds = %14
  %28 = getelementptr inbounds nuw i8, ptr %0, i64 96
  %29 = load ptr, ptr %28, align 8
  br label %30

30:                                               ; preds = %27, %17
  %.028 = phi ptr [ %24, %17 ], [ %29, %27 ]
  %.0 = phi ptr [ %22, %17 ], [ %12, %27 ]
  %31 = load i32, ptr %2, align 4
  %32 = and i32 %31, 1
  %.not31 = icmp eq i32 %32, 0
  br i1 %.not31, label %36, label %33

33:                                               ; preds = %30
  %34 = getelementptr inbounds nuw i8, ptr %0, i64 136
  %35 = load ptr, ptr %34, align 8
  tail call void @heap_deform_tuple(ptr noundef %35, ptr noundef nonnull %.0.i, ptr noundef %.0, ptr noundef %.028) #8
  br label %39

36:                                               ; preds = %30
  %37 = sext i32 %10 to i64
  %38 = shl nsw i64 %37, 3
  tail call void @llvm.memset.p0.i64(ptr align 8 %.0, i8 0, i64 %38, i1 false)
  tail call void @llvm.memset.p0.i64(ptr align 1 %.028, i8 1, i64 %37, i1 false)
  br label %39

39:                                               ; preds = %36, %33
  %40 = load i32, ptr %2, align 4
  %41 = or i32 %40, 4
  store i32 %41, ptr %2, align 4
  br label %42

42:                                               ; preds = %1, %39
  ret void
}